target datalayout = "e-m:e-p270:32:32-p271:32:32-p272:64:64-i64:64-i128:128-f80:128-n8:16:32:64-S128"
target triple = "x86_64-pc-linux-gnu"

%"class.base::internal::WeakReference" = type { %class.scoped_refptr }
%class.scoped_refptr = type { ptr }

; Function Attrs: mustprogress uwtable
define linkonce_odr void @_ZNK4base20RefCountedThreadSafeINS_8internal13WeakReference4FlagENS_33DefaultRefCountedThreadSafeTraitsIS3_EEE6AddRefEv(ptr noundef nonnull align 4 dereferenceable(4) %0) #0 comdat align 2 {
  %2 = alloca ptr, align 8
  store ptr %0, ptr %2, align 8, !tbaa !15
  %3 = load ptr, ptr %2, align 8
  call void @_ZNK4base6subtle24RefCountedThreadSafeBase6AddRefEv(ptr noundef nonnull align 4 dereferenceable(4) %3)
  ret void
}

; Function Attrs: mustprogress uwtable
define linkonce_odr void @_ZN13scoped_refptrIKN4base8internal13WeakReference4FlagEE6AddRefEPS4_(ptr noundef %0) #0 comdat align 2 {
  %2 = alloca ptr, align 8
  store ptr %0, ptr %2, align 8, !tbaa !3
  %3 = load ptr, ptr %2, align 8, !tbaa !3
  call void @_ZNK4base20RefCountedThreadSafeINS_8internal13WeakReference4FlagENS_33DefaultRefCountedThreadSafeTraitsIS3_EEE6AddRefEv(ptr noundef nonnull align 4 dereferenceable(4) %3)
  ret void
}

; Function Attrs: mustprogress uwtable
define linkonce_odr void @_ZN13scoped_refptrIKN4base8internal13WeakReference4FlagEEC2EPS4_(ptr noundef nonnull align 8 dereferenceable(8) %0, ptr noundef %1) unnamed_addr #0 comdat align 2 {
  %3 = alloca ptr, align 8
  %4 = alloca ptr, align 8
  store ptr %0, ptr %3, align 8, !tbaa !23
  store ptr %1, ptr %4, align 8, !tbaa !3
  %5 = load ptr, ptr %3, align 8
  %6 = getelementptr inbounds nuw %class.scoped_refptr, ptr %5, i32 0, i32 0
  %7 = load ptr, ptr %4, align 8, !tbaa !3
  store ptr %7, ptr %6, align 8, !tbaa !25
  %8 = getelementptr inbounds nuw %class.scoped_refptr, ptr %5, i32 0, i32 0
  %9 = load ptr, ptr %8, align 8, !tbaa !25
  %10 = icmp ne ptr %9, null
  br i1 %10, label %11, label %14

11:                                               ; preds = %2
  %12 = getelementptr inbounds nuw %class.scoped_refptr, ptr %5, i32 0, i32 0
  %13 = load ptr, ptr %12, align 8, !tbaa !25
  call void @_ZN13scoped_refptrIKN4base8internal13WeakReference4FlagEE6AddRefEPS4_(ptr noundef %13)
  br label %14

14:                                               ; preds = %11, %2
  ret void
}

; Function Attrs: mustprogress uwtable
define void @_ZN4base8internal13WeakReferenceC2EPKNS1_4FlagE(ptr noundef nonnull align 8 dereferenceable(8) %0, ptr noundef %1) unnamed_addr #0 align 2 {
  %3 = alloca ptr, align 8
  %4 = alloca ptr, align 8
  store ptr %0, ptr %3, align 8, !tbaa !21
  store ptr %1, ptr %4, align 8, !tbaa !3
  %5 = load ptr, ptr %3, align 8
  %6 = getelementptr inbounds nuw %"class.base::internal::WeakReference", ptr %5, i32 0, i32 0
  %7 = load ptr, ptr %4, align 8, !tbaa !3
  call void @_ZN13scoped_refptrIKN4base8internal13WeakReference4FlagEEC2EPS4_(ptr noundef nonnull align 8 dereferenceable(8) %6, ptr noundef %7)
  ret void
}