; Function Attrs: mustprogress uwtable
define void @_ZN4base8internal13WeakReferenceC2EPKNS1_4FlagE(ptr noundef nonnull writeonly align 8 captures(none) dereferenceable(8) initializes((0, 8)) %0, ptr noundef %1) unnamed_addr #0 align 2 {
  store ptr %1, ptr %0, align 8, !tbaa !14
  %.not.i = icmp eq ptr %1, null
  br i1 %.not.i, label %_ZN13scoped_refptrIKN4base8internal13WeakReference4FlagEEC2EPS4_.exit, label %3

3:                                                ; preds = %2
  tail call void @_ZNK4base6subtle24RefCountedThreadSafeBase6AddRefEv(ptr noundef nonnull align 4 dereferenceable(4) %1)
  br label %_ZN13scoped_refptrIKN4base8internal13WeakReference4FlagEEC2EPS4_.exit

_ZN13scoped_refptrIKN4base8internal13WeakReference4FlagEEC2EPS4_.exit: ; preds = %2, %3
  ret void
}